target datalayout = "e-m:e-p270:32:32-p271:32:32-p272:64:64-i64:64-i128:128-f80:128-n8:16:32:64-S128"
target triple = "x86_64-pc-linux-gnu"

%struct.mi_stats_s = type { %struct.mi_stat_count_s, %struct.mi_stat_count_s, %struct.mi_stat_count_s, %struct.mi_stat_count_s, %struct.mi_stat_count_s, %struct.mi_stat_count_s, %struct.mi_stat_count_s, %struct.mi_stat_count_s, %struct.mi_stat_count_s, %struct.mi_stat_count_s, %struct.mi_stat_count_s, %struct.mi_stat_count_s, %struct.mi_stat_count_s, %struct.mi_stat_count_s, %struct.mi_stat_counter_s, %struct.mi_stat_counter_s, %struct.mi_stat_counter_s, %struct.mi_stat_counter_s, %struct.mi_stat_counter_s, %struct.mi_stat_counter_s, %struct.mi_stat_counter_s, %struct.mi_stat_counter_s }
%struct.mi_stat_count_s = type { i64, i64, i64, i64 }
%struct.mi_stat_counter_s = type { i64, i64 }
%struct.mi_heap_s = type { ptr, [129 x ptr], [75 x %struct.mi_page_queue_s], ptr, i64, i64, [2 x i64], %struct.mi_random_cxt_s, i64, i64, i64, ptr, i8 }
%struct.mi_page_queue_s = type { ptr, ptr, i64 }
%struct.mi_random_cxt_s = type { [16 x i32], [16 x i32], i32 }
%struct.mi_commit_mask_s = type { [16 x i64] }
%struct.mi_page_s = type { i32, i32, i8, i16, i16, %union.mi_page_flags_s, i8, ptr, i32, i32, ptr, i64, i64, ptr, ptr, [1 x i64] }
%union.mi_page_flags_s = type { i8 }
%struct.mi_segment_s = type { i64, i8, i8, i8, i8, i64, %struct.mi_commit_mask_s, %struct.mi_commit_mask_s, ptr, ptr, i64, i64, i64, i64, i64, i64, i32, i64, i64, [1024 x %struct.mi_page_s] }
%struct.mi_segments_tld_s = type { [36 x %struct.mi_span_queue_s], i64, i64, i64, i64, ptr, ptr }
%struct.mi_span_queue_s = type { ptr, ptr, i64 }
%struct.mi_tld_s = type { i64, i8, ptr, ptr, %struct.mi_segments_tld_s, %struct.mi_os_tld_s, %struct.mi_stats_s }
%struct.mi_os_tld_s = type { i64, ptr }
%struct.mi_block_s = type { i64 }

; Function Attrs: inlinehint nounwind uwtable
define internal ptr @_mi_ptr_segment(ptr noundef %0) #2 {
  %2 = alloca ptr, align 8
  store ptr %0, ptr %2, align 8, !tbaa !82
  %3 = load ptr, ptr %2, align 8, !tbaa !82
  %4 = ptrtoint ptr %3 to i64
  %5 = and i64 %4, -67108864
  %6 = inttoptr i64 %5 to ptr
  ret ptr %6
}

; Function Attrs: inlinehint nounwind uwtable
define internal ptr @_mi_page_segment(ptr noundef %0) #2 {
  %2 = alloca ptr, align 8
  %3 = alloca ptr, align 8
  store ptr %0, ptr %2, align 8, !tbaa !21
  call void @llvm.lifetime.start.p0(i64 8, ptr %3) #7
  %4 = load ptr, ptr %2, align 8, !tbaa !21
  %5 = call ptr @_mi_ptr_segment(ptr noundef %4)
  store ptr %5, ptr %3, align 8, !tbaa !19
  %6 = load ptr, ptr %3, align 8, !tbaa !19
  call void @llvm.lifetime.end.p0(i64 8, ptr %3) #7
  ret ptr %6
}

; Function Attrs: inlinehint nounwind uwtable
define internal void @mi_block_set_nextx(ptr noundef %0, ptr noundef %1, ptr noundef %2, ptr noundef %3) #2 {
  %5 = alloca ptr, align 8
  %6 = alloca ptr, align 8
  %7 = alloca ptr, align 8
  %8 = alloca ptr, align 8
  store ptr %0, ptr %5, align 8, !tbaa !82
  store ptr %1, ptr %6, align 8, !tbaa !72
  store ptr %2, ptr %7, align 8, !tbaa !72
  store ptr %3, ptr %8, align 8, !tbaa !13
  %9 = load ptr, ptr %7, align 8, !tbaa !72
  %10 = ptrtoint ptr %9 to i64
  %11 = load ptr, ptr %6, align 8, !tbaa !72
  %12 = getelementptr inbounds nuw %struct.mi_block_s, ptr %11, i32 0, i32 0
  store i64 %10, ptr %12, align 8, !tbaa !117
  ret void
}

; Function Attrs: nounwind uwtable
define hidden void @_mi_segment_page_free(ptr noundef %0, i1 noundef zeroext %1, ptr noundef %2) #0 {
  %4 = alloca ptr, align 8
  %5 = alloca i8, align 1
  %6 = alloca ptr, align 8
  %7 = alloca ptr, align 8
  store ptr %0, ptr %4, align 8, !tbaa !21
  %8 = zext i1 %1 to i8
  store i8 %8, ptr %5, align 1, !tbaa !33
  store ptr %2, ptr %6, align 8, !tbaa !31
  call void @llvm.lifetime.start.p0(i64 8, ptr %7) #7
  %9 = load ptr, ptr %4, align 8, !tbaa !21
  %10 = call ptr @_mi_page_segment(ptr noundef %9)
  store ptr %10, ptr %7, align 8, !tbaa !19
  %11 = load ptr, ptr %4, align 8, !tbaa !21
  %12 = load ptr, ptr %6, align 8, !tbaa !31
  %13 = call ptr @mi_segment_page_clear(ptr noundef %11, ptr noundef %12)
  %14 = load ptr, ptr %7, align 8, !tbaa !19
  %15 = getelementptr inbounds nuw %struct.mi_segment_s, ptr %14, i32 0, i32 12
  %16 = load i64, ptr %15, align 8, !tbaa !35
  %17 = icmp eq i64 %16, 0
  br i1 %17, label %18, label %23

18:                                               ; preds = %3
  %19 = load ptr, ptr %7, align 8, !tbaa !19
  %20 = load i8, ptr %5, align 1, !tbaa !33, !range !38, !noundef !39
  %21 = trunc i8 %20 to i1
  %22 = load ptr, ptr %6, align 8, !tbaa !31
  call void @mi_segment_free(ptr noundef %19, i1 noundef zeroext %21, ptr noundef %22)
  br label %35

23:                                               ; preds = %3
  %24 = load ptr, ptr %7, align 8, !tbaa !19
  %25 = getelementptr inbounds nuw %struct.mi_segment_s, ptr %24, i32 0, i32 12
  %26 = load i64, ptr %25, align 8, !tbaa !35
  %27 = load ptr, ptr %7, align 8, !tbaa !19
  %28 = getelementptr inbounds nuw %struct.mi_segment_s, ptr %27, i32 0, i32 10
  %29 = load i64, ptr %28, align 8, !tbaa !40
  %30 = icmp eq i64 %26, %29
  br i1 %30, label %31, label %34

31:                                               ; preds = %23
  %32 = load ptr, ptr %7, align 8, !tbaa !19
  %33 = load ptr, ptr %6, align 8, !tbaa !31
  call void @mi_segment_abandon(ptr noundef %32, ptr noundef %33)
  br label %34

34:                                               ; preds = %31, %23
  br label %35

35:                                               ; preds = %34, %18
  call void @llvm.lifetime.end.p0(i64 8, ptr %7) #7
  ret void
}

; Function Attrs: inlinehint nounwind uwtable
define internal void @mi_block_set_next(ptr noundef %0, ptr noundef %1, ptr noundef %2) #2 {
  %4 = alloca ptr, align 8
  %5 = alloca ptr, align 8
  %6 = alloca ptr, align 8
  store ptr %0, ptr %4, align 8, !tbaa !21
  store ptr %1, ptr %5, align 8, !tbaa !72
  store ptr %2, ptr %6, align 8, !tbaa !72
  %7 = load ptr, ptr %4, align 8, !tbaa !21
  %8 = load ptr, ptr %5, align 8, !tbaa !72
  %9 = load ptr, ptr %6, align 8, !tbaa !72
  call void @mi_block_set_nextx(ptr noundef %7, ptr noundef %8, ptr noundef %9, ptr noundef null)
  ret void
}

; Function Attrs: nounwind uwtable
define hidden void @_mi_segment_huge_page_free(ptr noundef %0, ptr noundef %1, ptr noundef %2) #0 {
  %4 = alloca ptr, align 8
  %5 = alloca ptr, align 8
  %6 = alloca ptr, align 8
  %7 = alloca ptr, align 8
  %8 = alloca i64, align 8
  %9 = alloca i64, align 8
  %10 = alloca i8, align 1
  %11 = alloca ptr, align 8
  store ptr %0, ptr %4, align 8, !tbaa !19
  store ptr %1, ptr %5, align 8, !tbaa !21
  store ptr %2, ptr %6, align 8, !tbaa !72
  call void @llvm.lifetime.start.p0(i64 8, ptr %7) #7
  %12 = call ptr @mi_heap_get_default()
  store ptr %12, ptr %7, align 8, !tbaa !53
  call void @llvm.lifetime.start.p0(i64 8, ptr %8) #7
  store i64 0, ptr %8, align 8, !tbaa !8
  %13 = load ptr, ptr %4, align 8, !tbaa !19
  %14 = getelementptr inbounds nuw %struct.mi_segment_s, ptr %13, i32 0, i32 17
  %15 = load ptr, ptr %7, align 8, !tbaa !53
  %16 = getelementptr inbounds nuw %struct.mi_heap_s, ptr %15, i32 0, i32 4
  %17 = load i64, ptr %16, align 8, !tbaa !73
  store i64 %17, ptr %9, align 8, !tbaa !8
  %18 = load i64, ptr %8, align 8
  %19 = load i64, ptr %9, align 8
  %20 = cmpxchg ptr %14, i64 %18, i64 %19 acq_rel acquire, align 8
  %21 = extractvalue { i64, i1 } %20, 0
  %22 = extractvalue { i64, i1 } %20, 1
  br i1 %22, label %24, label %23

23:                                               ; preds = %3
  store i64 %21, ptr %8, align 8
  br label %24

24:                                               ; preds = %23, %3
  %25 = zext i1 %22 to i8
  store i8 %25, ptr %10, align 1, !tbaa !33
  %26 = load i8, ptr %10, align 1, !tbaa !33, !range !38, !noundef !39
  %27 = trunc i8 %26 to i1
  br i1 %27, label %28, label %52

28:                                               ; preds = %24
  %29 = load ptr, ptr %5, align 8, !tbaa !21
  %30 = load ptr, ptr %6, align 8, !tbaa !72
  %31 = load ptr, ptr %5, align 8, !tbaa !21
  %32 = getelementptr inbounds nuw %struct.mi_page_s, ptr %31, i32 0, i32 7
  %33 = load ptr, ptr %32, align 8, !tbaa !77
  call void @mi_block_set_next(ptr noundef %29, ptr noundef %30, ptr noundef %33)
  %34 = load ptr, ptr %6, align 8, !tbaa !72
  %35 = load ptr, ptr %5, align 8, !tbaa !21
  %36 = getelementptr inbounds nuw %struct.mi_page_s, ptr %35, i32 0, i32 7
  store ptr %34, ptr %36, align 8, !tbaa !77
  %37 = load ptr, ptr %5, align 8, !tbaa !21
  %38 = getelementptr inbounds nuw %struct.mi_page_s, ptr %37, i32 0, i32 8
  %39 = load i32, ptr %38, align 8, !tbaa !78
  %40 = add i32 %39, -1
  store i32 %40, ptr %38, align 8, !tbaa !78
  %41 = load ptr, ptr %5, align 8, !tbaa !21
  %42 = getelementptr inbounds nuw %struct.mi_page_s, ptr %41, i32 0, i32 6
  %43 = load i8, ptr %42, align 1
  %44 = and i8 %43, -2
  %45 = or i8 %44, 0
  store i8 %45, ptr %42, align 1
  call void @llvm.lifetime.start.p0(i64 8, ptr %11) #7
  %46 = load ptr, ptr %7, align 8, !tbaa !53
  %47 = getelementptr inbounds nuw %struct.mi_heap_s, ptr %46, i32 0, i32 0
  %48 = load ptr, ptr %47, align 8, !tbaa !79
  store ptr %48, ptr %11, align 8, !tbaa !80
  %49 = load ptr, ptr %5, align 8, !tbaa !21
  %50 = load ptr, ptr %11, align 8, !tbaa !80
  %51 = getelementptr inbounds nuw %struct.mi_tld_s, ptr %50, i32 0, i32 4
  call void @_mi_segment_page_free(ptr noundef %49, i1 noundef zeroext true, ptr noundef %51)
  call void @llvm.lifetime.end.p0(i64 8, ptr %11) #7
  br label %52

52:                                               ; preds = %28, %24
  call void @llvm.lifetime.end.p0(i64 8, ptr %8) #7
  call void @llvm.lifetime.end.p0(i64 8, ptr %7) #7
  ret void
}