; Function Attrs: nounwind uwtable
define hidden void @_mi_segment_huge_page_free(ptr noundef captures(none) %0, ptr noundef %1, ptr noundef %2) local_unnamed_addr #5 {
  %4 = tail call ptr @mi_heap_get_default() #9
  %5 = getelementptr inbounds nuw i8, ptr %0, i64 352
  %6 = getelementptr inbounds nuw i8, ptr %4, i64 2848
  %7 = load i64, ptr %6, align 8, !tbaa !77
  %8 = cmpxchg ptr %5, i64 0, i64 %7 acq_rel acquire, align 8
  %9 = extractvalue { i64, i1 } %8, 1
  br i1 %9, label %10, label %_mi_segment_page_free.exit

10:                                               ; preds = %3
  %11 = getelementptr inbounds nuw i8, ptr %1, i64 16
  %12 = load ptr, ptr %11, align 8, !tbaa !82
  %13 = ptrtoint ptr %12 to i64
  store i64 %13, ptr %2, align 8, !tbaa !83
  store ptr %2, ptr %11, align 8, !tbaa !82
  %14 = getelementptr inbounds nuw i8, ptr %1, i64 24
  %15 = load i32, ptr %14, align 8, !tbaa !65
  %16 = add i32 %15, -1
  store i32 %16, ptr %14, align 8, !tbaa !65
  %17 = getelementptr inbounds nuw i8, ptr %1, i64 15
  %18 = load i8, ptr %17, align 1
  %19 = and i8 %18, -2
  store i8 %19, ptr %17, align 1
  %20 = load ptr, ptr %4, align 8, !tbaa !85
  %21 = getelementptr inbounds nuw i8, ptr %20, i64 32
  %22 = ptrtoint ptr %1 to i64
  %23 = and i64 %22, -67108864
  %24 = inttoptr i64 %23 to ptr
  %25 = tail call fastcc ptr @mi_segment_page_clear(ptr noundef %1, ptr noundef nonnull %21)
  %26 = getelementptr inbounds nuw i8, ptr %24, i64 312
  %27 = load i64, ptr %26, align 8, !tbaa !22
  %28 = icmp eq i64 %27, 0
  br i1 %28, label %29, label %30

29:                                               ; preds = %10
  tail call fastcc void @mi_segment_free(ptr noundef nonnull %24, ptr noundef nonnull %21)
  br label %_mi_segment_page_free.exit

30:                                               ; preds = %10
  %31 = getelementptr inbounds nuw i8, ptr %24, i64 296
  %32 = load i64, ptr %31, align 8, !tbaa !27
  %33 = icmp eq i64 %27, %32
  br i1 %33, label %34, label %_mi_segment_page_free.exit

34:                                               ; preds = %30
  tail call fastcc void @mi_segment_abandon(ptr noundef nonnull %24, ptr noundef nonnull %21)
  br label %_mi_segment_page_free.exit

_mi_segment_page_free.exit:                       ; preds = %34, %30, %29, %3
  ret void
}